target datalayout = "e-m:e-p270:32:32-p271:32:32-p272:64:64-i64:64-i128:128-f80:128-n8:16:32:64-S128"
target triple = "x86_64-pc-linux-gnu"

%class.MutualInfo = type { i32, i8, i32, ptr, ptr, ptr }

; Function Attrs: mustprogress uwtable
define void @_ZN10MutualInfoC2Ejib(ptr noundef nonnull align 8 dereferenceable(40) %0, i32 noundef %1, i32 noundef %2, i1 noundef zeroext %3) unnamed_addr #4 align 2 {
  %5 = alloca ptr, align 8
  %6 = alloca i32, align 4
  %7 = alloca i32, align 4
  %8 = alloca i8, align 1
  store ptr %0, ptr %5, align 8
  store i32 %1, ptr %6, align 4
  store i32 %2, ptr %7, align 4
  %9 = zext i1 %3 to i8
  store i8 %9, ptr %8, align 1
  %10 = load ptr, ptr %5, align 8
  %11 = getelementptr inbounds %class.MutualInfo, ptr %10, i32 0, i32 0
  %12 = load i32, ptr %7, align 4
  store i32 %12, ptr %11, align 8
  %13 = getelementptr inbounds %class.MutualInfo, ptr %10, i32 0, i32 1
  %14 = load i8, ptr %8, align 1
  %15 = trunc i8 %14 to i1
  %16 = zext i1 %15 to i8
  store i8 %16, ptr %13, align 4
  %17 = getelementptr inbounds %class.MutualInfo, ptr %10, i32 0, i32 3
  store ptr null, ptr %17, align 8
  %18 = getelementptr inbounds %class.MutualInfo, ptr %10, i32 0, i32 4
  store ptr null, ptr %18, align 8
  %19 = getelementptr inbounds %class.MutualInfo, ptr %10, i32 0, i32 5
  store ptr null, ptr %19, align 8
  %20 = load i32, ptr %6, align 4
  call void @_ZN10MutualInfo7setBinsEj(ptr noundef nonnull align 8 dereferenceable(40) %10, i32 noundef %20)
  ret void
}