; Function Attrs: mustprogress uwtable
define void @_ZN10MutualInfoC2Ejib(ptr noundef nonnull align 8 captures(none) dereferenceable(40) initializes((0, 5), (8, 12), (16, 40)) %0, i32 noundef %1, i32 noundef %2, i1 noundef zeroext %3) unnamed_addr #3 align 2 {
  %5 = zext i1 %3 to i8
  store i32 %2, ptr %0, align 8
  %6 = getelementptr inbounds nuw i8, ptr %0, i64 4
  store i8 %5, ptr %6, align 4
  %7 = getelementptr inbounds nuw i8, ptr %0, i64 16
  tail call void @llvm.memset.p0.i64(ptr noundef nonnull align 8 dereferenceable(24) %7, i8 0, i64 24, i1 false)
  tail call void @_ZN10MutualInfo7setBinsEj(ptr noundef nonnull align 8 dereferenceable(40) %0, i32 noundef %1)
  ret void
}